target datalayout = "e-m:e-p270:32:32-p271:32:32-p272:64:64-i64:64-i128:128-f80:128-n8:16:32:64-S128"
target triple = "x86_64-pc-linux-gnu"

%struct.MBCSData = type { %struct.NewConverter, ptr, [8192 x %struct._MBCSToUFallback], i32, ptr, [1088 x i16], [64448 x i16], [64448 x i32], ptr, i32, i32, [1024 x i16], i16, i8, i8 }
%struct.NewConverter = type { ptr, ptr, ptr, ptr }
%struct._MBCSToUFallback = type { i32, i32 }
%struct.UCMFile = type { ptr, ptr, %struct.UCMStates, [60 x i8] }
%struct.UCMStates = type { [128 x [256 x i32]], [128 x i32], [128 x i32], i32, i32, i32, i32, i8, i8 }

; Function Attrs: mustprogress uwtable
define internal noundef signext i8 @_ZL11MBCSIsValidP12NewConverterPKhi(ptr noundef %0, ptr noundef %1, i32 noundef %2) #2 {
  %4 = alloca ptr, align 8
  %5 = alloca ptr, align 8
  %6 = alloca i32, align 4
  %7 = alloca ptr, align 8
  store ptr %0, ptr %4, align 8, !tbaa !28
  store ptr %1, ptr %5, align 8, !tbaa !26
  store i32 %2, ptr %6, align 4, !tbaa !27
  call void @llvm.lifetime.start.p0(i64 8, ptr %7) #10
  %8 = load ptr, ptr %4, align 8, !tbaa !28
  store ptr %8, ptr %7, align 8, !tbaa !19
  %9 = load ptr, ptr %7, align 8, !tbaa !19
  %10 = getelementptr inbounds nuw %struct.MBCSData, ptr %9, i32 0, i32 1
  %11 = load ptr, ptr %10, align 8, !tbaa !21
  %12 = getelementptr inbounds nuw %struct.UCMFile, ptr %11, i32 0, i32 2
  %13 = load ptr, ptr %5, align 8, !tbaa !26
  %14 = load i32, ptr %6, align 4, !tbaa !27
  %15 = call i32 @ucm_countChars(ptr noundef %12, ptr noundef %13, i32 noundef %14)
  %16 = icmp eq i32 1, %15
  %17 = zext i1 %16 to i8
  call void @llvm.lifetime.end.p0(i64 8, ptr %7) #10
  ret i8 %17
}