; Function Attrs: mustprogress uwtable
define internal noundef signext range(i8 0, 2) i8 @_ZL11MBCSIsValidP12NewConverterPKhi(ptr noundef readonly captures(none) %0, ptr noundef %1, i32 noundef %2) #2 {
  %4 = getelementptr inbounds nuw i8, ptr %0, i64 32
  %5 = load ptr, ptr %4, align 8, !tbaa !18
  %6 = getelementptr inbounds nuw i8, ptr %5, i64 16
  %7 = tail call i32 @ucm_countChars(ptr noundef nonnull %6, ptr noundef %1, i32 noundef %2)
  %8 = icmp eq i32 %7, 1
  %9 = zext i1 %8 to i8
  ret i8 %9
}